Certificate:
    Data:
        Version: 3 (0x2)
        Serial Number: 1 (0x1)
    Signature Algorithm: sha1WithRSAEncryption
        Issuer: CN=iamtheCA
        Validity
            Not Before: Jan 17 16:14:55 2014 GMT
            Not After : Jan 15 16:14:55 2024 GMT
        Subject: CN=ureport-reporter-cn
        Subject Public Key Info:
            Public Key Algorithm: rsaEncryption
                Public-Key: (2048 bit)
                Modulus:
                    00:9d:44:3c:61:7c:5c:aa:07:a8:93:98:d1:a8:44:
                    ba:a4:ff:2b:61:f2:be:a6:57:93:5a:28:cd:52:ca:
                    f5:eb:77:83:b4:2b:54:5f:6c:09:97:f1:83:03:f3:
                    93:4a:74:2e:44:be:c6:a2:5e:7c:af:5a:25:70:71:
                    0c:e2:36:4d:b8:e2:c1:1b:d0:c8:c1:2d:1c:21:a7:
                    89:1a:5d:2c:b9:52:17:54:bc:5f:46:6f:49:82:b2:
                    86:62:0e:09:87:92:8a:74:fb:3b:31:a5:21:c1:43:
                    39:eb:8b:58:6a:66:e1:5d:a2:64:57:3c:de:83:b3:
                    ec:e4:49:6d:1c:5b:5d:13:d0:26:66:e1:bb:68:64:
                    88:a8:bb:97:f9:e1:96:d0:38:3d:11:76:1f:20:23:
                    a7:14:18:be:82:a4:8c:61:63:b8:0c:11:3e:1b:22:
                    c2:b3:45:e6:ee:15:15:df:f9:b3:af:f0:63:2f:25:
                    b9:a1:76:e7:17:14:53:ac:d5:90:b4:c6:6c:8e:9f:
                    89:b7:f7:16:8f:7a:2b:99:42:42:f1:9f:ed:43:ca:
                    4b:e4:c2:ab:22:5b:dc:23:df:5c:67:2e:81:71:5b:
                    e4:73:5f:81:52:c0:c3:4a:89:af:44:c1:93:86:c7:
                    77:bf:3a:d3:3f:3b:10:13:8d:70:e8:e0:45:a6:41:
                    67:b9
                Exponent: 65537 (0x10001)
        X509v3 extensions:
            Netscape Cert Type: 
                SSL Client, S/MIME
            X509v3 Key Usage: 
                Digital Signature, Key Encipherment, Data Encipherment
            X509v3 Authority Key Identifier: 
                DirName:/CN=iamtheCA
                serial:AC:DC:52:3D:C7:E3:C9:F9

            X509v3 Subject Key Identifier: 
                A0:95:5D:F6:E2:AE:66:D9:C7:41:22:D1:AE:CE:D8:36:0E:51:43:08
            X509v3 Extended Key Usage: 
                TLS Web Client Authentication
            X509v3 Subject Alternative Name: 
                DirName:/CN=localnonhost
    Signature Algorithm: sha1WithRSAEncryption
         7a:e7:23:55:8c:08:ee:fe:d1:cc:41:61:37:dd:8d:ba:ab:3b:
         a3:2a:13:9c:9c:e4:e4:58:0a:09:0f:4f:ab:af:10:15:cd:84:
         48:62:7a:78:74:d9:4f:ac:a3:37:34:66:03:2c:ff:d5:95:32:
         0e:88:af:e3:91:ec:d6:91:56:36:79:9e:5f:6d:12:d1:21:4f:
         a7:b7:00:9d:51:c4:1c:13:87:6a:42:c7:da:47:ab:34:8f:86:
         a5:97:76:f7:f1:5d:d3:f6:09:00:a5:9e:92:0f:72:b0:3a:fe:
         37:15:85:a2:19:7b:8c:a1:43:16:fc:b2:b6:0d:f8:be:e4:e8:
         1a:55:c4:b0:9f:a8:9c:51:ec:e0:c6:ba:4c:73:ae:d8:b6:c6:
         80:fb:7e:3f:a9:d2:76:92:a9:81:52:4b:37:be:b4:75:55:ff:
         5a:24:67:2e:18:79:6c:70:d1:c1:cf:58:ac:f8:7b:cf:d6:7d:
         9e:a6:3e:40:70:69:8f:b9:04:97:22:18:63:9a:84:76:d2:94:
         8d:80:a2:83:39:4a:d4:3e:29:32:5d:67:15:65:1b:96:64:b1:
         54:a5:de:cc:4d:3b:b8:e6:2c:58:ee:a5:02:4b:79:e6:43:77:
         bf:1b:07:33:6c:1d:8b:50:ff:a7:5c:23:5d:2f:31:af:a5:48:
         3b:df:14:b3
-----BEGIN CERTIFICATE-----
MIIDWTCCAkGgAwIBAgIBATANBgkqhkiG9w0BAQUFADATMREwDwYDVQQDEwhpYW10
aGVDQTAeFw0xNDAxMTcxNjE0NTVaFw0yNDAxMTUxNjE0NTVaMB4xHDAaBgNVBAMT
E3VyZXBvcnQtcmVwb3J0ZXItY24wggEiMA0GCSqGSIb3DQEBAQUAA4IBDwAwggEK
AoIBAQCdRDxhfFyqB6iTmNGoRLqk/yth8r6mV5NaKM1SyvXrd4O0K1RfbAmX8YMD
85NKdC5EvsaiXnyvWiVwcQziNk244sEb0MjBLRwhp4kaXSy5UhdUvF9Gb0mCsoZi
DgmHkop0+zsxpSHBQznri1hqZuFdomRXPN6Ds+zkSW0cW10T0CZm4btoZIiou5f5
4ZbQOD0Rdh8gI6cUGL6CpIxhY7gMET4bIsKzRebuFRXf+bOv8GMvJbmhducXFFOs
1ZC0xmyOn4m39xaPeiuZQkLxn+1DykvkwqsiW9wj31xnLoFxW+RzX4FSwMNKia9E
wZOGx3e/OtM/OxATjXDo4EWmQWe5AgMBAAGjgawwgakwEQYJYIZIAYb4QgEBBAQD
AgWgMAsGA1UdDwQEAwIEsDAtBgNVHSMEJjAkoRekFTATMREwDwYDVQQDEwhpYW10
aGVDQYIJAKzcUj3H48n5MB0GA1UdDgQWBBSglV324q5m2cdBItGuztg2DlFDCDAT
BgNVHSUEDDAKBggrBgEFBQcDAjAkBgNVHREEHTAbpBkwFzEVMBMGA1UEAxMMbG9j
YWxub25ob3N0MA0GCSqGSIb3DQEBBQUAA4IBAQB65yNVjAju/tHMQWE33Y26qzuj
KhOcnOTkWAoJD0+rrxAVzYRIYnp4dNlPrKM3NGYDLP/VlTIOiK/jkezWkVY2eZ5f
bRLRIU+ntwCdUcQcE4dqQsfaR6s0j4all3b38V3T9gkApZ6SD3KwOv43FYWiGXuM
oUMW/LK2Dfi+5OgaVcSwn6icUezgxrpMc67YtsaA+34/qdJ2kqmBUks3vrR1Vf9a
JGcuGHlscNHBz1is+HvP1n2epj5AcGmPuQSXIhhjmoR20pSNgKKDOUrUPikyXWcV
ZRuWZLFUpd7MTTu45ixY7qUCS3nmQ3e/GwczbB2LUP+nXCNdLzGvpUg73xSz
-----END CERTIFICATE-----
