Certificate:
    Data:
        Version: 3 (0x2)
        Serial Number: 2 (0x2)
    Signature Algorithm: sha1WithRSAEncryption
        Issuer: CN=iamtheCA
        Validity
            Not Before: Sep 16 07:30:52 2015 GMT
            Not After : Sep 13 07:30:52 2025 GMT
        Subject: CN=ureport-reporter-cn
        Subject Public Key Info:
            Public Key Algorithm: rsaEncryption
                Public-Key: (2048 bit)
                Modulus:
                    00:c4:29:ef:92:e8:76:a5:3f:22:7e:a8:bb:a9:5a:
                    87:9e:f6:60:10:b7:db:04:42:1e:88:92:64:8a:35:
                    d3:29:99:b1:e7:c4:5c:a8:87:73:56:16:95:3d:0e:
                    a3:be:2b:72:21:5c:ae:99:79:63:f1:ba:e4:c2:cb:
                    1a:8d:7d:18:44:7f:99:82:0c:67:0a:06:d1:5c:23:
                    7a:31:55:89:5b:b6:94:ee:ba:0e:be:91:c4:f4:7d:
                    e4:b5:ff:be:a4:f4:73:f1:89:24:6b:bd:92:b4:b3:
                    2b:7a:b5:a1:a8:95:b1:05:da:40:d3:0d:0e:e7:de:
                    40:67:65:1b:84:d5:20:05:0b:32:dc:f3:80:a4:17:
                    06:8c:01:a6:da:0d:8a:2d:4d:5b:df:ad:57:e7:eb:
                    f0:af:6b:5c:b7:79:b3:28:3c:a9:1e:93:28:5a:6f:
                    e5:8c:e6:74:26:f4:36:a6:e2:00:b0:b7:51:34:83:
                    ca:09:bf:51:0e:41:30:17:6b:d7:33:c0:3b:5b:11:
                    40:60:03:bd:4e:d7:1f:85:36:ea:41:aa:1e:14:a8:
                    48:6c:7d:8a:1a:4c:1e:51:55:f1:ca:16:66:c8:b6:
                    87:8b:ae:51:22:25:4c:97:56:64:00:80:25:6e:b3:
                    ea:28:0e:90:3b:65:d5:3d:26:c9:52:5a:f5:d7:72:
                    5e:cd
                Exponent: 65537 (0x10001)
        X509v3 extensions:
            Netscape Cert Type: 
                SSL Client, S/MIME
            X509v3 Key Usage: 
                Digital Signature, Key Encipherment, Data Encipherment
            X509v3 Authority Key Identifier: 
                DirName:/CN=iamtheCA
                serial:FC:D5:79:86:E3:02:E8:18

            X509v3 Subject Key Identifier: 
                0E:80:8B:16:D5:41:06:05:72:44:43:99:D6:27:DD:5C:DC:BA:CA:77
            X509v3 Extended Key Usage: 
                TLS Web Client Authentication
            X509v3 Subject Alternative Name: 
                DirName:/CN=localnonhost
    Signature Algorithm: sha1WithRSAEncryption
         90:ab:87:f8:5f:e6:a6:92:65:c7:c4:29:fe:b6:d8:56:6c:9c:
         41:34:49:44:1b:7d:02:c0:98:f0:81:42:55:bd:b5:f2:32:62:
         b2:51:5d:54:46:0d:ff:29:a6:eb:a6:6e:3a:07:4e:82:ab:11:
         ff:a7:c7:90:58:c6:fd:c8:c0:90:83:72:27:c4:a6:64:b6:35:
         a9:f6:3e:54:7a:a3:c9:cb:ed:a0:e0:5e:c3:04:08:dc:a5:9b:
         d9:08:5c:bc:de:59:9a:ec:d1:fe:d9:3f:2b:ff:62:24:ac:f7:
         b6:49:a2:f8:e4:f1:2d:e8:ca:1a:30:a6:66:99:c1:ff:8b:79:
         56:df:26:06:d0:4a:df:da:e0:c0:80:26:fb:14:2e:1f:2c:b7:
         a5:0a:d1:a5:06:d1:03:05:8f:b2:96:7f:75:dc:22:b6:d4:b2:
         b2:23:fc:ee:30:af:6e:a0:62:ea:9a:f4:41:84:06:9b:b3:2f:
         2e:75:1f:64:84:af:8c:f2:23:a1:7a:ae:5f:d4:d3:cb:e8:1e:
         52:9a:f4:a6:52:2c:71:e3:52:14:53:cf:ea:a6:ba:c5:f7:04:
         33:9d:08:bb:40:7e:95:79:23:9d:f7:9b:fd:b6:06:3e:75:42:
         ce:59:33:1a:ad:3a:43:9b:e1:f4:a2:a1:13:f4:0d:db:9b:06:
         92:ce:36:fd
-----BEGIN CERTIFICATE-----
MIIDWTCCAkGgAwIBAgIBAjANBgkqhkiG9w0BAQUFADATMREwDwYDVQQDEwhpYW10
aGVDQTAeFw0xNTA5MTYwNzMwNTJaFw0yNTA5MTMwNzMwNTJaMB4xHDAaBgNVBAMT
E3VyZXBvcnQtcmVwb3J0ZXItY24wggEiMA0GCSqGSIb3DQEBAQUAA4IBDwAwggEK
AoIBAQDEKe+S6HalPyJ+qLupWoee9mAQt9sEQh6IkmSKNdMpmbHnxFyoh3NWFpU9
DqO+K3IhXK6ZeWPxuuTCyxqNfRhEf5mCDGcKBtFcI3oxVYlbtpTuug6+kcT0feS1
/76k9HPxiSRrvZK0syt6taGolbEF2kDTDQ7n3kBnZRuE1SAFCzLc84CkFwaMAaba
DYotTVvfrVfn6/Cva1y3ebMoPKkekyhab+WM5nQm9Dam4gCwt1E0g8oJv1EOQTAX
a9czwDtbEUBgA71O1x+FNupBqh4UqEhsfYoaTB5RVfHKFmbItoeLrlEiJUyXVmQA
gCVus+ooDpA7ZdU9JslSWvXXcl7NAgMBAAGjgawwgakwEQYJYIZIAYb4QgEBBAQD
AgWgMAsGA1UdDwQEAwIEsDAtBgNVHSMEJjAkoRekFTATMREwDwYDVQQDEwhpYW10
aGVDQYIJAPzVeYbjAugYMB0GA1UdDgQWBBQOgIsW1UEGBXJEQ5nWJ91c3LrKdzAT
BgNVHSUEDDAKBggrBgEFBQcDAjAkBgNVHREEHTAbpBkwFzEVMBMGA1UEAxMMbG9j
YWxub25ob3N0MA0GCSqGSIb3DQEBBQUAA4IBAQCQq4f4X+amkmXHxCn+tthWbJxB
NElEG30CwJjwgUJVvbXyMmKyUV1URg3/Kabrpm46B06CqxH/p8eQWMb9yMCQg3In
xKZktjWp9j5UeqPJy+2g4F7DBAjcpZvZCFy83lma7NH+2T8r/2IkrPe2SaL45PEt
6MoaMKZmmcH/i3lW3yYG0Erf2uDAgCb7FC4fLLelCtGlBtEDBY+yln913CK21LKy
I/zuMK9uoGLqmvRBhAabsy8udR9khK+M8iOheq5f1NPL6B5SmvSmUixx41IUU8/q
prrF9wQznQi7QH6VeSOd95v9tgY+dULOWTMarTpDm+H0oqET9A3bmwaSzjb9
-----END CERTIFICATE-----
