Certificate:
    Data:
        Version: 3 (0x2)
        Serial Number: 1 (0x1)
    Signature Algorithm: sha1WithRSAEncryption
        Issuer: CN=iamtheServerCA
        Validity
            Not Before: Sep 16 07:30:52 2015 GMT
            Not After : Sep 13 07:30:52 2025 GMT
        Subject: CN=localhost
        Subject Public Key Info:
            Public Key Algorithm: rsaEncryption
                Public-Key: (2048 bit)
                Modulus:
                    00:ac:14:14:b2:a9:78:6b:73:e3:3f:cf:31:5b:73:
                    f7:b5:7a:64:27:ca:3a:aa:5d:ad:64:fc:a2:85:77:
                    91:07:48:f5:14:0d:1b:7a:83:48:af:58:25:fc:c2:
                    5f:10:17:0a:5b:02:ed:12:76:89:04:76:ec:f3:5f:
                    d0:7d:0c:95:17:0e:e2:62:88:ac:ca:e7:d7:05:90:
                    99:48:b6:18:b6:9b:42:75:24:17:a8:e7:29:d1:65:
                    9c:3c:8e:f5:74:ad:ec:3f:1a:59:5a:6b:24:72:67:
                    f8:71:42:78:b7:33:e6:1d:90:0e:60:90:4c:81:a7:
                    99:91:93:14:cf:39:b2:cc:2a:fd:85:30:b9:42:a0:
                    24:05:cb:4e:12:05:08:ea:fe:37:a0:5c:53:19:bf:
                    bc:be:bc:de:bd:2c:20:b3:11:d8:d3:fa:6b:03:3c:
                    48:ea:3b:0a:b5:3b:ab:20:8d:3b:db:9b:f9:47:e6:
                    c3:49:e5:af:91:fc:ff:f2:b0:f2:80:65:26:f6:98:
                    6b:3e:ea:6e:a5:ad:2f:59:6d:a7:3a:36:a7:54:d6:
                    eb:3e:3c:bf:35:29:c1:ee:16:e1:fd:c8:41:3f:9f:
                    65:b1:1b:cc:e6:b1:02:17:0a:2d:fc:49:7f:8f:c8:
                    94:f4:86:f8:db:ed:d2:37:3c:07:d7:e4:63:ce:62:
                    d5:91
                Exponent: 65537 (0x10001)
        X509v3 extensions:
            Netscape Cert Type: 
                SSL Server
            X509v3 Key Usage: 
                Digital Signature, Key Encipherment, Data Encipherment
            X509v3 Authority Key Identifier: 
                DirName:/CN=iamtheServerCA
                serial:9F:36:8F:49:69:F1:4B:C2

            X509v3 Subject Key Identifier: 
                8D:25:44:AF:8A:45:6A:80:A1:7E:57:2C:C0:B7:07:DA:08:B6:58:B1
            X509v3 Subject Alternative Name: 
                DirName:/CN=nonlocalhost
    Signature Algorithm: sha1WithRSAEncryption
         7d:1b:f3:25:5a:44:46:20:5f:fb:38:45:bf:cb:fc:dc:81:ed:
         6a:f3:f7:d8:f4:89:43:53:e8:e3:1f:99:a5:4b:bb:b7:05:33:
         88:40:47:de:2f:98:67:6d:c8:08:69:ce:76:89:d4:2d:bb:80:
         5a:b2:96:97:dd:1f:fd:20:35:52:ef:2e:52:89:bd:fd:e9:a2:
         93:e6:22:3c:92:e5:4f:50:a7:14:80:9e:20:57:32:16:76:47:
         17:5f:14:1f:1e:d1:18:7d:31:40:1d:d1:9c:8b:aa:f2:bb:3b:
         4a:2d:d4:23:42:0b:6f:db:b2:bb:3d:21:87:d5:ac:1d:7c:a3:
         91:b1:2f:e9:ba:af:4f:1b:70:f3:80:eb:15:5c:88:b6:31:40:
         e1:84:f8:60:de:19:0b:5e:d8:19:b9:4a:a2:e9:b5:4a:d8:bc:
         b5:52:4c:40:50:4a:b1:19:9d:3d:fb:8e:5c:7b:cc:c6:66:2f:
         28:7a:93:ab:20:b4:68:34:06:c2:54:7e:32:f9:91:30:b9:0a:
         30:7b:3d:85:ee:ae:cc:36:72:1b:e3:53:5d:68:f4:30:e8:e2:
         50:79:3d:5e:92:00:48:21:27:11:73:34:0d:d1:cd:6e:da:1d:
         cf:09:99:de:ff:bd:42:45:b2:a0:a4:14:b8:c6:ef:de:3f:1e:
         fa:a0:ef:55
-----BEGIN CERTIFICATE-----
MIIDRjCCAi6gAwIBAgIBATANBgkqhkiG9w0BAQUFADAZMRcwFQYDVQQDEw5pYW10
aGVTZXJ2ZXJDQTAeFw0xNTA5MTYwNzMwNTJaFw0yNTA5MTMwNzMwNTJaMBQxEjAQ
BgNVBAMTCWxvY2FsaG9zdDCCASIwDQYJKoZIhvcNAQEBBQADggEPADCCAQoCggEB
AKwUFLKpeGtz4z/PMVtz97V6ZCfKOqpdrWT8ooV3kQdI9RQNG3qDSK9YJfzCXxAX
ClsC7RJ2iQR27PNf0H0MlRcO4mKIrMrn1wWQmUi2GLabQnUkF6jnKdFlnDyO9XSt
7D8aWVprJHJn+HFCeLcz5h2QDmCQTIGnmZGTFM85sswq/YUwuUKgJAXLThIFCOr+
N6BcUxm/vL683r0sILMR2NP6awM8SOo7CrU7qyCNO9ub+Ufmw0nlr5H8//Kw8oBl
JvaYaz7qbqWtL1ltpzo2p1TW6z48vzUpwe4W4f3IQT+fZbEbzOaxAhcKLfxJf4/I
lPSG+Nvt0jc8B9fkY85i1ZECAwEAAaOBnTCBmjARBglghkgBhvhCAQEEBAMCBkAw
CwYDVR0PBAQDAgSwMDMGA1UdIwQsMCqhHaQbMBkxFzAVBgNVBAMTDmlhbXRoZVNl
cnZlckNBggkAnzaPSWnxS8IwHQYDVR0OBBYEFI0lRK+KRWqAoX5XLMC3B9oItlix
MCQGA1UdEQQdMBukGTAXMRUwEwYDVQQDEwxub25sb2NhbGhvc3QwDQYJKoZIhvcN
AQEFBQADggEBAH0b8yVaREYgX/s4Rb/L/NyB7Wrz99j0iUNT6OMfmaVLu7cFM4hA
R94vmGdtyAhpznaJ1C27gFqylpfdH/0gNVLvLlKJvf3popPmIjyS5U9QpxSAniBX
MhZ2RxdfFB8e0Rh9MUAd0ZyLqvK7O0ot1CNCC2/bsrs9IYfVrB18o5GxL+m6r08b
cPOA6xVciLYxQOGE+GDeGQte2Bm5SqLptUrYvLVSTEBQSrEZnT37jlx7zMZmLyh6
k6sgtGg0BsJUfjL5kTC5CjB7PYXursw2chvjU11o9DDo4lB5PV6SAEghJxFzNA3R
zW7aHc8Jmd7/vUJFsqCkFLjG794/Hvqg71U=
-----END CERTIFICATE-----
